Certificate:
    Data:
        Version: 3 (0x2)
        Serial Number:
            c6:89:7b:b1:84:bb:b5:02:4f:59:6d:64:b4:90:ff:8b
        Signature Algorithm: sha256WithRSAEncryption
        Issuer: CN=bonelf
        Validity
            Not Before: Apr  5 04:51:27 2021 GMT
            Not After : Jul  9 04:51:27 2023 GMT
        Subject: CN=client1
        Subject Public Key Info:
            Public Key Algorithm: rsaEncryption
                RSA Public-Key: (2048 bit)
                Modulus:
                    00:f1:a8:9c:20:cb:ed:ab:63:87:58:5f:a2:92:ff:
                    bb:16:e0:92:dd:ac:d2:37:21:fd:33:28:ba:d1:73:
                    6c:ac:c1:b4:a5:de:96:11:e5:9b:f5:4d:4b:13:9d:
                    89:90:26:de:c0:e5:dc:99:95:b1:0a:89:55:78:7e:
                    9b:c8:8c:12:d2:91:8c:01:65:33:94:a6:00:cc:bb:
                    b1:5b:f1:6f:dc:7e:e7:1c:6b:fc:92:c8:c3:ae:81:
                    56:b3:be:a0:90:ed:9e:91:24:57:58:c3:6f:a7:fd:
                    53:47:4d:c1:7a:cb:8f:8a:72:1e:a1:d3:b4:b7:e2:
                    de:42:f8:70:7f:48:52:a2:77:80:de:5d:9c:63:8d:
                    01:5a:c8:ce:af:4c:fe:84:9a:21:2b:fa:51:b3:13:
                    22:cd:55:b8:48:de:ec:44:16:77:61:98:bd:13:4f:
                    cc:7b:e0:85:9f:76:1c:5a:bb:52:35:4d:08:49:e4:
                    ca:ed:65:cb:16:c2:4b:c9:c2:20:80:1c:34:4c:85:
                    68:29:0f:74:6d:45:19:ce:36:fc:8a:17:ee:c3:82:
                    2d:9a:58:f8:c8:87:55:4d:51:9a:ff:bd:15:ef:47:
                    d5:ad:b3:05:04:53:d9:a0:33:74:c8:ad:ff:ed:c7:
                    24:ab:09:a3:e3:cd:91:32:9c:c9:73:e4:2d:c2:17:
                    81:87
                Exponent: 65537 (0x10001)
        X509v3 extensions:
            X509v3 Basic Constraints: 
                CA:FALSE
            X509v3 Subject Key Identifier: 
                4E:D8:65:B2:20:51:2E:8D:54:74:A5:FC:24:D1:0A:80:58:1F:7F:7B
            X509v3 Authority Key Identifier: 
                keyid:81:76:5A:14:32:61:57:C7:CB:81:E3:CD:14:8E:23:4A:37:9B:31:FF
                DirName:/CN=bonelf
                serial:51:CD:4B:9D:DF:F7:1C:71:B3:CB:CC:FD:C5:36:93:86:EF:15:7E:FE

            X509v3 Extended Key Usage: 
                TLS Web Client Authentication
            X509v3 Key Usage: 
                Digital Signature
    Signature Algorithm: sha256WithRSAEncryption
         ac:eb:b3:16:dc:00:25:a4:e8:8d:63:b7:a7:4a:9a:29:fd:28:
         04:52:f2:85:c6:64:53:de:0c:81:db:c4:c1:03:ed:17:4c:09:
         ed:8a:c2:b2:85:15:cf:53:83:4d:d3:5c:5c:ff:4a:19:be:53:
         ad:ca:79:98:33:38:6d:08:71:b4:72:5c:68:52:15:3b:64:d8:
         57:cc:f0:61:95:80:df:98:c7:d9:10:4f:7f:57:51:e3:b4:0e:
         2a:98:4c:89:54:21:9b:24:90:88:ee:89:33:50:82:29:e5:9a:
         15:a0:a9:7e:b1:a6:d9:d4:89:4c:48:36:6a:72:dd:29:45:7a:
         a3:d6:f2:9e:ca:35:5d:e7:41:7b:e2:97:50:ba:fc:f3:63:39:
         5c:5c:dd:74:2d:d5:7e:f4:34:3d:64:8d:1a:b1:a3:69:b4:1b:
         f6:f2:48:6b:00:05:bb:4f:15:25:46:be:6b:3d:84:22:03:98:
         19:68:03:ac:3f:98:00:56:c1:fd:43:55:49:f1:33:3f:52:6f:
         41:5c:36:ba:77:84:ee:91:64:40:11:38:e9:a8:1e:65:c7:3d:
         be:28:ea:09:df:42:14:d0:59:e2:cc:77:02:d7:75:c9:0f:05:
         5d:e5:74:a1:5c:73:83:5b:98:61:91:37:24:a7:bc:b4:2c:27:
         bf:47:70:b9
-----BEGIN CERTIFICATE-----
MIIDTDCCAjSgAwIBAgIRAMaJe7GEu7UCT1ltZLSQ/4swDQYJKoZIhvcNAQELBQAw
ETEPMA0GA1UEAwwGYm9uZWxmMB4XDTIxMDQwNTA0NTEyN1oXDTIzMDcwOTA0NTEy
N1owEjEQMA4GA1UEAwwHY2xpZW50MTCCASIwDQYJKoZIhvcNAQEBBQADggEPADCC
AQoCggEBAPGonCDL7atjh1hfopL/uxbgkt2s0jch/TMoutFzbKzBtKXelhHlm/VN
SxOdiZAm3sDl3JmVsQqJVXh+m8iMEtKRjAFlM5SmAMy7sVvxb9x+5xxr/JLIw66B
VrO+oJDtnpEkV1jDb6f9U0dNwXrLj4pyHqHTtLfi3kL4cH9IUqJ3gN5dnGONAVrI
zq9M/oSaISv6UbMTIs1VuEje7EQWd2GYvRNPzHvghZ92HFq7UjVNCEnkyu1lyxbC
S8nCIIAcNEyFaCkPdG1FGc42/IoX7sOCLZpY+MiHVU1Rmv+9Fe9H1a2zBQRT2aAz
dMit/+3HJKsJo+PNkTKcyXPkLcIXgYcCAwEAAaOBnTCBmjAJBgNVHRMEAjAAMB0G
A1UdDgQWBBRO2GWyIFEujVR0pfwk0QqAWB9/ezBMBgNVHSMERTBDgBSBdloUMmFX
x8uB480UjiNKN5sx/6EVpBMwETEPMA0GA1UEAwwGYm9uZWxmghRRzUud3/cccbPL
zP3FNpOG7xV+/jATBgNVHSUEDDAKBggrBgEFBQcDAjALBgNVHQ8EBAMCB4AwDQYJ
KoZIhvcNAQELBQADggEBAKzrsxbcACWk6I1jt6dKmin9KARS8oXGZFPeDIHbxMED
7RdMCe2KwrKFFc9Tg03TXFz/Shm+U63KeZgzOG0IcbRyXGhSFTtk2FfM8GGVgN+Y
x9kQT39XUeO0DiqYTIlUIZskkIjuiTNQginlmhWgqX6xptnUiUxINmpy3SlFeqPW
8p7KNV3nQXvil1C6/PNjOVxc3XQt1X70ND1kjRqxo2m0G/bySGsABbtPFSVGvms9
hCIDmBloA6w/mABWwf1DVUnxMz9Sb0FcNrp3hO6RZEAROOmoHmXHPb4o6gnfQhTQ
WeLMdwLXdckPBV3ldKFcc4NbmGGRNySnvLQsJ79HcLk=
-----END CERTIFICATE-----
